; ModuleID = '61/339.c'
source_filename = "61/339.c"
target datalayout = "e-m:e-p270:32:32-p271:32:32-p272:64:64-i64:64-f80:128-n8:16:32:64-S128"
target triple = "x86_64-pc-linux-gnu"

@.str = private unnamed_addr constant [3 x i8] c"%d\00", align 1
@.str.1 = private unnamed_addr constant [4 x i8] c"%d\0A\00", align 1

; Function Attrs: noinline nounwind uwtable
define dso_local i32 @main() #0 {
  %1 = alloca i32, align 4
  %2 = alloca [20 x i32], align 16
  %3 = alloca i32, align 4
  %4 = alloca i32, align 4
  %5 = alloca i32, align 4
  %6 = alloca i32, align 4
  %7 = alloca i32, align 4
  %8 = alloca i32, align 4
  store i32 0, i32* %1, align 4
  store i32 0, i32* %4, align 4
  %9 = call i32 (i8*, ...) @__isoc99_scanf(i8* getelementptr inbounds ([3 x i8], [3 x i8]* @.str, i64 0, i64 0), i32* %3)
  br label %10

10:                                               ; preds = %14, %0
  %11 = load i32, i32* %4, align 4
  %12 = load i32, i32* %3, align 4
  %13 = icmp slt i32 %11, %12
  br i1 %13, label %14, label %21

14:                                               ; preds = %10
  %15 = load i32, i32* %4, align 4
  %16 = sext i32 %15 to i64
  %17 = getelementptr inbounds [20 x i32], [20 x i32]* %2, i64 0, i64 %16
  %18 = call i32 (i8*, ...) @__isoc99_scanf(i8* getelementptr inbounds ([3 x i8], [3 x i8]* @.str, i64 0, i64 0), i32* %17)
  %19 = load i32, i32* %4, align 4
  %20 = add nsw i32 %19, 1
  store i32 %20, i32* %4, align 4
  br label %10

21:                                               ; preds = %10
  store i32 0, i32* %4, align 4
  br label %22

22:                                               ; preds = %42, %21
  %23 = load i32, i32* %4, align 4
  %24 = load i32, i32* %3, align 4
  %25 = icmp slt i32 %23, %24
  br i1 %25, label %26, label %47

26:                                               ; preds = %22
  store i32 1, i32* %6, align 4
  store i32 1, i32* %7, align 4
  store i32 1, i32* %5, align 4
  br label %27

27:                                               ; preds = %34, %26
  %28 = load i32, i32* %5, align 4
  %29 = load i32, i32* %4, align 4
  %30 = sext i32 %29 to i64
  %31 = getelementptr inbounds [20 x i32], [20 x i32]* %2, i64 0, i64 %30
  %32 = load i32, i32* %31, align 4
  %33 = icmp slt i32 %28, %32
  br i1 %33, label %34, label %42

34:                                               ; preds = %27
  %35 = load i32, i32* %7, align 4
  store i32 %35, i32* %8, align 4
  %36 = load i32, i32* %6, align 4
  %37 = load i32, i32* %7, align 4
  %38 = add nsw i32 %36, %37
  store i32 %38, i32* %7, align 4
  %39 = load i32, i32* %8, align 4
  store i32 %39, i32* %6, align 4
  %40 = load i32, i32* %5, align 4
  %41 = add nsw i32 %40, 1
  store i32 %41, i32* %5, align 4
  br label %27

42:                                               ; preds = %27
  %43 = load i32, i32* %6, align 4
  %44 = call i32 (i8*, ...) @printf(i8* getelementptr inbounds ([4 x i8], [4 x i8]* @.str.1, i64 0, i64 0), i32 %43)
  %45 = load i32, i32* %4, align 4
  %46 = add nsw i32 %45, 1
  store i32 %46, i32* %4, align 4
  br label %22

47:                                               ; preds = %22
  %48 = load i32, i32* %1, align 4
  ret i32 %48
}

declare dso_local i32 @__isoc99_scanf(i8*, ...) #1

declare dso_local i32 @printf(i8*, ...) #1


!llvm.module.flags = !{!0}
!llvm.ident = !{!1}

!0 = !{i32 1, !"wchar_size", i32 4}
!1 = !{!"clang version 10.0.0-4ubuntu1 "}
